; ModuleID = '2/954.c'
source_filename = "2/954.c"
target datalayout = "e-m:e-p270:32:32-p271:32:32-p272:64:64-i64:64-f80:128-n8:16:32:64-S128"
target triple = "x86_64-pc-linux-gnu"

%struct.anon = type { i32, [26 x i8] }

@.str = private unnamed_addr constant [3 x i8] c"%d\00", align 1
@.str.1 = private unnamed_addr constant [5 x i8] c"%d%s\00", align 1
@.str.2 = private unnamed_addr constant [7 x i8] c"%c\0A%d\0A\00", align 1
@.str.3 = private unnamed_addr constant [4 x i8] c"%d\0A\00", align 1

; Function Attrs: noinline nounwind uwtable
define dso_local i32 @main() #0 {
  %1 = alloca i32, align 4
  %2 = alloca i32, align 4
  %3 = alloca i32, align 4
  %4 = alloca [999 x %struct.anon], align 16
  %5 = alloca i8, align 1
  %6 = alloca i8, align 1
  %7 = alloca i32, align 4
  %8 = alloca i32, align 4
  %9 = alloca i32, align 4
  store i32 0, i32* %1, align 4
  %10 = call i32 (i8*, ...) @__isoc99_scanf(i8* getelementptr inbounds ([3 x i8], [3 x i8]* @.str, i64 0, i64 0), i32* %2)
  store i32 0, i32* %3, align 4
  br label %11

11:                                               ; preds = %26, %0
  %12 = load i32, i32* %3, align 4
  %13 = load i32, i32* %2, align 4
  %14 = icmp slt i32 %12, %13
  br i1 %14, label %15, label %29

15:                                               ; preds = %11
  %16 = load i32, i32* %3, align 4
  %17 = sext i32 %16 to i64
  %18 = getelementptr inbounds [999 x %struct.anon], [999 x %struct.anon]* %4, i64 0, i64 %17
  %19 = getelementptr inbounds %struct.anon, %struct.anon* %18, i32 0, i32 0
  %20 = load i32, i32* %3, align 4
  %21 = sext i32 %20 to i64
  %22 = getelementptr inbounds [999 x %struct.anon], [999 x %struct.anon]* %4, i64 0, i64 %21
  %23 = getelementptr inbounds %struct.anon, %struct.anon* %22, i32 0, i32 1
  %24 = getelementptr inbounds [26 x i8], [26 x i8]* %23, i64 0, i64 0
  %25 = call i32 (i8*, ...) @__isoc99_scanf(i8* getelementptr inbounds ([5 x i8], [5 x i8]* @.str.1, i64 0, i64 0), i32* %19, i8* %24)
  br label %26

26:                                               ; preds = %15
  %27 = load i32, i32* %3, align 4
  %28 = add nsw i32 %27, 1
  store i32 %28, i32* %3, align 4
  br label %11

29:                                               ; preds = %11
  store i32 0, i32* %7, align 4
  store i8 65, i8* %5, align 1
  br label %30

30:                                               ; preds = %82, %29
  %31 = load i8, i8* %5, align 1
  %32 = sext i8 %31 to i32
  %33 = icmp sle i32 %32, 90
  br i1 %33, label %34, label %85

34:                                               ; preds = %30
  store i32 0, i32* %9, align 4
  store i32 0, i32* %3, align 4
  br label %35

35:                                               ; preds = %71, %34
  %36 = load i32, i32* %3, align 4
  %37 = load i32, i32* %2, align 4
  %38 = icmp slt i32 %36, %37
  br i1 %38, label %39, label %74

39:                                               ; preds = %35
  store i32 0, i32* %8, align 4
  br label %40

40:                                               ; preds = %67, %39
  %41 = load i32, i32* %8, align 4
  %42 = sext i32 %41 to i64
  %43 = load i32, i32* %3, align 4
  %44 = sext i32 %43 to i64
  %45 = getelementptr inbounds [999 x %struct.anon], [999 x %struct.anon]* %4, i64 0, i64 %44
  %46 = getelementptr inbounds %struct.anon, %struct.anon* %45, i32 0, i32 1
  %47 = getelementptr inbounds [26 x i8], [26 x i8]* %46, i64 0, i64 0
  %48 = call i64 @strlen(i8* %47) #3
  %49 = icmp ult i64 %42, %48
  br i1 %49, label %50, label %70

50:                                               ; preds = %40
  %51 = load i32, i32* %3, align 4
  %52 = sext i32 %51 to i64
  %53 = getelementptr inbounds [999 x %struct.anon], [999 x %struct.anon]* %4, i64 0, i64 %52
  %54 = getelementptr inbounds %struct.anon, %struct.anon* %53, i32 0, i32 1
  %55 = load i32, i32* %8, align 4
  %56 = sext i32 %55 to i64
  %57 = getelementptr inbounds [26 x i8], [26 x i8]* %54, i64 0, i64 %56
  %58 = load i8, i8* %57, align 1
  %59 = sext i8 %58 to i32
  %60 = load i8, i8* %5, align 1
  %61 = sext i8 %60 to i32
  %62 = icmp eq i32 %59, %61
  br i1 %62, label %63, label %66

63:                                               ; preds = %50
  %64 = load i32, i32* %9, align 4
  %65 = add nsw i32 %64, 1
  store i32 %65, i32* %9, align 4
  br label %66

66:                                               ; preds = %63, %50
  br label %67

67:                                               ; preds = %66
  %68 = load i32, i32* %8, align 4
  %69 = add nsw i32 %68, 1
  store i32 %69, i32* %8, align 4
  br label %40

70:                                               ; preds = %40
  br label %71

71:                                               ; preds = %70
  %72 = load i32, i32* %3, align 4
  %73 = add nsw i32 %72, 1
  store i32 %73, i32* %3, align 4
  br label %35

74:                                               ; preds = %35
  %75 = load i32, i32* %9, align 4
  %76 = load i32, i32* %7, align 4
  %77 = icmp sgt i32 %75, %76
  br i1 %77, label %78, label %81

78:                                               ; preds = %74
  %79 = load i32, i32* %9, align 4
  store i32 %79, i32* %7, align 4
  %80 = load i8, i8* %5, align 1
  store i8 %80, i8* %6, align 1
  br label %81

81:                                               ; preds = %78, %74
  br label %82

82:                                               ; preds = %81
  %83 = load i8, i8* %5, align 1
  %84 = add i8 %83, 1
  store i8 %84, i8* %5, align 1
  br label %30

85:                                               ; preds = %30
  %86 = load i8, i8* %6, align 1
  %87 = sext i8 %86 to i32
  %88 = load i32, i32* %7, align 4
  %89 = call i32 (i8*, ...) @printf(i8* getelementptr inbounds ([7 x i8], [7 x i8]* @.str.2, i64 0, i64 0), i32 %87, i32 %88)
  store i32 0, i32* %3, align 4
  br label %90

90:                                               ; preds = %130, %85
  %91 = load i32, i32* %3, align 4
  %92 = load i32, i32* %2, align 4
  %93 = icmp slt i32 %91, %92
  br i1 %93, label %94, label %133

94:                                               ; preds = %90
  store i32 0, i32* %8, align 4
  br label %95

95:                                               ; preds = %126, %94
  %96 = load i32, i32* %8, align 4
  %97 = sext i32 %96 to i64
  %98 = load i32, i32* %3, align 4
  %99 = sext i32 %98 to i64
  %100 = getelementptr inbounds [999 x %struct.anon], [999 x %struct.anon]* %4, i64 0, i64 %99
  %101 = getelementptr inbounds %struct.anon, %struct.anon* %100, i32 0, i32 1
  %102 = getelementptr inbounds [26 x i8], [26 x i8]* %101, i64 0, i64 0
  %103 = call i64 @strlen(i8* %102) #3
  %104 = icmp ult i64 %97, %103
  br i1 %104, label %105, label %129

105:                                              ; preds = %95
  %106 = load i32, i32* %3, align 4
  %107 = sext i32 %106 to i64
  %108 = getelementptr inbounds [999 x %struct.anon], [999 x %struct.anon]* %4, i64 0, i64 %107
  %109 = getelementptr inbounds %struct.anon, %struct.anon* %108, i32 0, i32 1
  %110 = load i32, i32* %8, align 4
  %111 = sext i32 %110 to i64
  %112 = getelementptr inbounds [26 x i8], [26 x i8]* %109, i64 0, i64 %111
  %113 = load i8, i8* %112, align 1
  %114 = sext i8 %113 to i32
  %115 = load i8, i8* %6, align 1
  %116 = sext i8 %115 to i32
  %117 = icmp eq i32 %114, %116
  br i1 %117, label %118, label %125

118:                                              ; preds = %105
  %119 = load i32, i32* %3, align 4
  %120 = sext i32 %119 to i64
  %121 = getelementptr inbounds [999 x %struct.anon], [999 x %struct.anon]* %4, i64 0, i64 %120
  %122 = getelementptr inbounds %struct.anon, %struct.anon* %121, i32 0, i32 0
  %123 = load i32, i32* %122, align 16
  %124 = call i32 (i8*, ...) @printf(i8* getelementptr inbounds ([4 x i8], [4 x i8]* @.str.3, i64 0, i64 0), i32 %123)
  br label %129

125:                                              ; preds = %105
  br label %126

126:                                              ; preds = %125
  %127 = load i32, i32* %8, align 4
  %128 = add nsw i32 %127, 1
  store i32 %128, i32* %8, align 4
  br label %95

129:                                              ; preds = %118, %95
  br label %130

130:                                              ; preds = %129
  %131 = load i32, i32* %3, align 4
  %132 = add nsw i32 %131, 1
  store i32 %132, i32* %3, align 4
  br label %90

133:                                              ; preds = %90
  ret i32 0
}

declare dso_local i32 @__isoc99_scanf(i8*, ...) #1

; Function Attrs: nounwind readonly
declare dso_local i64 @strlen(i8*) #2

declare dso_local i32 @printf(i8*, ...) #1


!llvm.module.flags = !{!0}
!llvm.ident = !{!1}

!0 = !{i32 1, !"wchar_size", i32 4}
!1 = !{!"clang version 10.0.0-4ubuntu1 "}
